target datalayout = "e-m:e-p270:32:32-p271:32:32-p272:64:64-i64:64-i128:128-f80:128-n8:16:32:64-S128"
target triple = "x86_64-pc-linux-gnu"

%"struct.duckdb_zstd::ZSTD_compressionParameters" = type { i32, i32, i32, i32, i32, i32, i32 }
%"struct.duckdb_zstd::ldmParams_t" = type { i32, i32, i32, i32, i32, i32 }

; Function Attrs: mustprogress nounwind uwtable
define void @_ZN11duckdb_zstd25ZSTD_ldm_adjustParametersEPNS_11ldmParams_tEPKNS_26ZSTD_compressionParametersE(ptr noundef %0, ptr noundef %1) #0 {
  %3 = alloca ptr, align 8
  %4 = alloca ptr, align 8
  store ptr %0, ptr %3, align 8, !tbaa !3
  store ptr %1, ptr %4, align 8, !tbaa !3
  %5 = load ptr, ptr %4, align 8, !tbaa !3
  %6 = getelementptr inbounds nuw %"struct.duckdb_zstd::ZSTD_compressionParameters", ptr %5, i32 0, i32 0
  %7 = load i32, ptr %6, align 4, !tbaa !7
  %8 = load ptr, ptr %3, align 8, !tbaa !3
  %9 = getelementptr inbounds nuw %"struct.duckdb_zstd::ldmParams_t", ptr %8, i32 0, i32 5
  store i32 %7, ptr %9, align 4, !tbaa !11
  br label %10

10:                                               ; preds = %2
  br label %11

11:                                               ; preds = %10
  %12 = load ptr, ptr %3, align 8, !tbaa !3
  %13 = getelementptr inbounds nuw %"struct.duckdb_zstd::ldmParams_t", ptr %12, i32 0, i32 2
  %14 = load i32, ptr %13, align 4, !tbaa !14
  %15 = icmp ne i32 %14, 0
  br i1 %15, label %19, label %16

16:                                               ; preds = %11
  %17 = load ptr, ptr %3, align 8, !tbaa !3
  %18 = getelementptr inbounds nuw %"struct.duckdb_zstd::ldmParams_t", ptr %17, i32 0, i32 2
  store i32 3, ptr %18, align 4, !tbaa !14
  br label %19

19:                                               ; preds = %16, %11
  %20 = load ptr, ptr %3, align 8, !tbaa !3
  %21 = getelementptr inbounds nuw %"struct.duckdb_zstd::ldmParams_t", ptr %20, i32 0, i32 3
  %22 = load i32, ptr %21, align 4, !tbaa !15
  %23 = icmp ne i32 %22, 0
  br i1 %23, label %27, label %24

24:                                               ; preds = %19
  %25 = load ptr, ptr %3, align 8, !tbaa !3
  %26 = getelementptr inbounds nuw %"struct.duckdb_zstd::ldmParams_t", ptr %25, i32 0, i32 3
  store i32 64, ptr %26, align 4, !tbaa !15
  br label %27

27:                                               ; preds = %24, %19
  %28 = load ptr, ptr %3, align 8, !tbaa !3
  %29 = getelementptr inbounds nuw %"struct.duckdb_zstd::ldmParams_t", ptr %28, i32 0, i32 1
  %30 = load i32, ptr %29, align 4, !tbaa !16
  %31 = icmp eq i32 %30, 0
  br i1 %31, label %32, label %48

32:                                               ; preds = %27
  %33 = load ptr, ptr %3, align 8, !tbaa !3
  %34 = getelementptr inbounds nuw %"struct.duckdb_zstd::ldmParams_t", ptr %33, i32 0, i32 5
  %35 = load i32, ptr %34, align 4, !tbaa !11
  %36 = sub i32 %35, 7
  %37 = icmp ugt i32 6, %36
  br i1 %37, label %38, label %39

38:                                               ; preds = %32
  br label %44

39:                                               ; preds = %32
  %40 = load ptr, ptr %3, align 8, !tbaa !3
  %41 = getelementptr inbounds nuw %"struct.duckdb_zstd::ldmParams_t", ptr %40, i32 0, i32 5
  %42 = load i32, ptr %41, align 4, !tbaa !11
  %43 = sub i32 %42, 7
  br label %44

44:                                               ; preds = %39, %38
  %45 = phi i32 [ 6, %38 ], [ %43, %39 ]
  %46 = load ptr, ptr %3, align 8, !tbaa !3
  %47 = getelementptr inbounds nuw %"struct.duckdb_zstd::ldmParams_t", ptr %46, i32 0, i32 1
  store i32 %45, ptr %47, align 4, !tbaa !16
  br label %48

48:                                               ; preds = %44, %27
  %49 = load ptr, ptr %3, align 8, !tbaa !3
  %50 = getelementptr inbounds nuw %"struct.duckdb_zstd::ldmParams_t", ptr %49, i32 0, i32 4
  %51 = load i32, ptr %50, align 4, !tbaa !17
  %52 = icmp eq i32 %51, 0
  br i1 %52, label %53, label %74

53:                                               ; preds = %48
  %54 = load ptr, ptr %3, align 8, !tbaa !3
  %55 = getelementptr inbounds nuw %"struct.duckdb_zstd::ldmParams_t", ptr %54, i32 0, i32 5
  %56 = load i32, ptr %55, align 4, !tbaa !11
  %57 = load ptr, ptr %3, align 8, !tbaa !3
  %58 = getelementptr inbounds nuw %"struct.duckdb_zstd::ldmParams_t", ptr %57, i32 0, i32 1
  %59 = load i32, ptr %58, align 4, !tbaa !16
  %60 = icmp ult i32 %56, %59
  br i1 %60, label %61, label %62

61:                                               ; preds = %53
  br label %70

62:                                               ; preds = %53
  %63 = load ptr, ptr %3, align 8, !tbaa !3
  %64 = getelementptr inbounds nuw %"struct.duckdb_zstd::ldmParams_t", ptr %63, i32 0, i32 5
  %65 = load i32, ptr %64, align 4, !tbaa !11
  %66 = load ptr, ptr %3, align 8, !tbaa !3
  %67 = getelementptr inbounds nuw %"struct.duckdb_zstd::ldmParams_t", ptr %66, i32 0, i32 1
  %68 = load i32, ptr %67, align 4, !tbaa !16
  %69 = sub i32 %65, %68
  br label %70

70:                                               ; preds = %62, %61
  %71 = phi i32 [ 0, %61 ], [ %69, %62 ]
  %72 = load ptr, ptr %3, align 8, !tbaa !3
  %73 = getelementptr inbounds nuw %"struct.duckdb_zstd::ldmParams_t", ptr %72, i32 0, i32 4
  store i32 %71, ptr %73, align 4, !tbaa !17
  br label %74

74:                                               ; preds = %70, %48
  %75 = load ptr, ptr %3, align 8, !tbaa !3
  %76 = getelementptr inbounds nuw %"struct.duckdb_zstd::ldmParams_t", ptr %75, i32 0, i32 2
  %77 = load i32, ptr %76, align 4, !tbaa !14
  %78 = load ptr, ptr %3, align 8, !tbaa !3
  %79 = getelementptr inbounds nuw %"struct.duckdb_zstd::ldmParams_t", ptr %78, i32 0, i32 1
  %80 = load i32, ptr %79, align 4, !tbaa !16
  %81 = icmp ult i32 %77, %80
  br i1 %81, label %82, label %86

82:                                               ; preds = %74
  %83 = load ptr, ptr %3, align 8, !tbaa !3
  %84 = getelementptr inbounds nuw %"struct.duckdb_zstd::ldmParams_t", ptr %83, i32 0, i32 2
  %85 = load i32, ptr %84, align 4, !tbaa !14
  br label %90

86:                                               ; preds = %74
  %87 = load ptr, ptr %3, align 8, !tbaa !3
  %88 = getelementptr inbounds nuw %"struct.duckdb_zstd::ldmParams_t", ptr %87, i32 0, i32 1
  %89 = load i32, ptr %88, align 4, !tbaa !16
  br label %90

90:                                               ; preds = %86, %82
  %91 = phi i32 [ %85, %82 ], [ %89, %86 ]
  %92 = load ptr, ptr %3, align 8, !tbaa !3
  %93 = getelementptr inbounds nuw %"struct.duckdb_zstd::ldmParams_t", ptr %92, i32 0, i32 2
  store i32 %91, ptr %93, align 4, !tbaa !14
  ret void
}