; Function Attrs: mustprogress nofree norecurse nosync nounwind willreturn memory(argmem: readwrite) uwtable
define void @_ZN11duckdb_zstd25ZSTD_ldm_adjustParametersEPNS_11ldmParams_tEPKNS_26ZSTD_compressionParametersE(ptr noundef captures(none) initializes((20, 24)) %0, ptr noundef readonly captures(none) %1) local_unnamed_addr #0 {
  %3 = load i32, ptr %1, align 4, !tbaa !3
  %4 = getelementptr inbounds nuw i8, ptr %0, i64 20
  store i32 %3, ptr %4, align 4, !tbaa !9
  %5 = getelementptr inbounds nuw i8, ptr %0, i64 8
  %6 = load i32, ptr %5, align 4, !tbaa !12
  %7 = getelementptr inbounds nuw i8, ptr %0, i64 12
  %8 = load i32, ptr %7, align 4, !tbaa !13
  %.not25 = icmp eq i32 %8, 0
  br i1 %.not25, label %9, label %10

9:                                                ; preds = %2
  store i32 64, ptr %7, align 4, !tbaa !13
  br label %10

10:                                               ; preds = %9, %2
  %11 = getelementptr inbounds nuw i8, ptr %0, i64 4
  %12 = load i32, ptr %11, align 4, !tbaa !14
  %13 = icmp eq i32 %12, 0
  br i1 %13, label %14, label %16

14:                                               ; preds = %10
  %15 = add i32 %3, -7
  %spec.select = tail call i32 @llvm.umax.i32(i32 %15, i32 6)
  store i32 %spec.select, ptr %11, align 4, !tbaa !14
  br label %16

16:                                               ; preds = %14, %10
  %17 = phi i32 [ %spec.select, %14 ], [ %12, %10 ]
  %18 = getelementptr inbounds nuw i8, ptr %0, i64 16
  %19 = load i32, ptr %18, align 4, !tbaa !15
  %20 = icmp eq i32 %19, 0
  br i1 %20, label %21, label %22

21:                                               ; preds = %16
  %spec.select26 = tail call i32 @llvm.usub.sat.i32(i32 %3, i32 %17)
  store i32 %spec.select26, ptr %18, align 4, !tbaa !15
  br label %22

22:                                               ; preds = %21, %16
  %.not = icmp eq i32 %6, 0
  %spec.select27 = select i1 %.not, i32 3, i32 %6
  %. = tail call i32 @llvm.umin.i32(i32 %spec.select27, i32 %17)
  store i32 %., ptr %5, align 4, !tbaa !12
  ret void
}